
out_2025-07-16/asm_test/ibex_arithmetic_basic_test_0.o:     file format elf32-littleriscv


Disassembly of section .text:

80000000 <$xrv32i2p1_m2p0_zicsr2p0_zifencei2p0_zmmul1p0>:
80000000:	5a40106f          	j	800015a4 <mmode_exception_handler>
80000004:	1d80006f          	j	800001dc <mmode_intr_vector_1>
80000008:	2780006f          	j	80000280 <mmode_intr_vector_2>
8000000c:	3180006f          	j	80000324 <mmode_intr_vector_3>
80000010:	3b80006f          	j	800003c8 <mmode_intr_vector_4>
80000014:	4580006f          	j	8000046c <mmode_intr_vector_5>
80000018:	4f80006f          	j	80000510 <mmode_intr_vector_6>
8000001c:	5980006f          	j	800005b4 <mmode_intr_vector_7>
80000020:	6380006f          	j	80000658 <mmode_intr_vector_8>
80000024:	6d80006f          	j	800006fc <mmode_intr_vector_9>
80000028:	7780006f          	j	800007a0 <mmode_intr_vector_10>
8000002c:	0190006f          	j	80000844 <mmode_intr_vector_11>
80000030:	0b90006f          	j	800008e8 <mmode_intr_vector_12>
80000034:	1590006f          	j	8000098c <mmode_intr_vector_13>
80000038:	1f90006f          	j	80000a30 <mmode_intr_vector_14>
8000003c:	2990006f          	j	80000ad4 <mmode_intr_vector_15>
80000040:	3390006f          	j	80000b78 <mmode_intr_vector_16>
80000044:	3d90006f          	j	80000c1c <mmode_intr_vector_17>
80000048:	4790006f          	j	80000cc0 <mmode_intr_vector_18>
8000004c:	5190006f          	j	80000d64 <mmode_intr_vector_19>
80000050:	5b90006f          	j	80000e08 <mmode_intr_vector_20>
80000054:	6590006f          	j	80000eac <mmode_intr_vector_21>
80000058:	6f90006f          	j	80000f50 <mmode_intr_vector_22>
8000005c:	7970006f          	j	80000ff2 <mmode_intr_vector_23>
80000060:	0340106f          	j	80001094 <mmode_intr_vector_24>
80000064:	0d20106f          	j	80001136 <mmode_intr_vector_25>
80000068:	1700106f          	j	800011d8 <mmode_intr_vector_26>
8000006c:	20e0106f          	j	8000127a <mmode_intr_vector_27>
80000070:	2ac0106f          	j	8000131c <mmode_intr_vector_28>
80000074:	34a0106f          	j	800013be <mmode_intr_vector_29>
80000078:	3e80106f          	j	80001460 <mmode_intr_vector_30>
8000007c:	4860106f          	j	80001502 <mmode_intr_vector_31>

80000080 <_start>:
80000080:	0000cf17          	auipc	t5,0xc
80000084:	c04f0f13          	addi	t5,t5,-1020 # 8000bc84 <kernel_stack_end>

80000088 <trap_vec_init>:
80000088:	00000d97          	auipc	s11,0x0
8000008c:	f78d8d93          	addi	s11,s11,-136 # 80000000 <$xrv32i2p1_m2p0_zicsr2p0_zifencei2p0_zmmul1p0>
80000090:	001ded93          	ori	s11,s11,1
80000094:	305d9073          	csrw	mtvec,s11

80000098 <mepc_setup>:
80000098:	00000d97          	auipc	s11,0x0
8000009c:	020d8d93          	addi	s11,s11,32 # 800000b8 <init>
800000a0:	341d9073          	csrw	mepc,s11

800000a4 <init_machine_mode>:
800000a4:	6d89                	lui	s11,0x2
800000a6:	e00d8d93          	addi	s11,s11,-512 # 1e00 <$xrv32i2p1_m2p0_zicsr2p0_zifencei2p0_zmmul1p0-0x7fffe200>
800000aa:	300d9073          	csrw	mstatus,s11
800000ae:	4d81                	li	s11,0
800000b0:	304d9073          	csrw	mie,s11
800000b4:	30200073          	mret

800000b8 <init>:
800000b8:	00000013          	nop
800000bc:	4081                	li	ra,0
800000be:	a3eda137          	lui	sp,0xa3eda
800000c2:	baa10113          	addi	sp,sp,-1110 # a3ed9baa <_end+0x23ecdf22>
800000c6:	4191                	li	gp,4
800000c8:	fbc16237          	lui	tp,0xfbc16
800000cc:	6bf20213          	addi	tp,tp,1727 # fbc166bf <_end+0x7bc0aa37>
800000d0:	4291                	li	t0,4
800000d2:	ef64e337          	lui	t1,0xef64e
800000d6:	27b30313          	addi	t1,t1,635 # ef64e27b <_end+0x6f6425f3>
800000da:	239453b7          	lui	t2,0x23945
800000de:	4a238393          	addi	t2,t2,1186 # 239454a2 <$xrv32i2p1_m2p0_zicsr2p0_zifencei2p0_zmmul1p0-0x5c6bab5e>
800000e2:	4401                	li	s0,0
800000e4:	4481                	li	s1,0
800000e6:	f60ed537          	lui	a0,0xf60ed
800000ea:	d1d50513          	addi	a0,a0,-739 # f60ecd1d <_end+0x760e1095>
800000ee:	f57625b7          	lui	a1,0xf5762
800000f2:	f3158593          	addi	a1,a1,-207 # f5761f31 <_end+0x757562a9>
800000f6:	4629                	li	a2,10
800000f8:	46b5                	li	a3,13
800000fa:	86fcb737          	lui	a4,0x86fcb
800000fe:	93a70713          	addi	a4,a4,-1734 # 86fca93a <_end+0x6fbecb2>
80000102:	4799                	li	a5,6
80000104:	4835                	li	a6,13
80000106:	4881                	li	a7,0
80000108:	fda41937          	lui	s2,0xfda41
8000010c:	daf90913          	addi	s2,s2,-593 # fda40daf <_end+0x7da35127>
80000110:	800009b7          	lui	s3,0x80000
80000114:	4a21                	li	s4,8
80000116:	4aad                	li	s5,11
80000118:	80000b37          	lui	s6,0x80000
8000011c:	80000bb7          	lui	s7,0x80000
80000120:	80000c37          	lui	s8,0x80000
80000124:	4c81                	li	s9,0
80000126:	4d95                	li	s11,5
80000128:	4e09                	li	t3,2
8000012a:	80000eb7          	lui	t4,0x80000
8000012e:	80000fb7          	lui	t6,0x80000
80000132:	00007d17          	auipc	s10,0x7
80000136:	d32d0d13          	addi	s10,s10,-718 # 80006e64 <user_stack_end>
8000013a:	a009                	j	8000013c <main>

8000013c <main>:
8000013c:	4e81                	li	t4,0
8000013e:	4e05                	li	t3,1
80000140:	4d2f3237          	lui	tp,0x4d2f3
80000144:	23e20213          	addi	tp,tp,574 # 4d2f323e <$xrv32i2p1_m2p0_zicsr2p0_zifencei2p0_zmmul1p0-0x32d0cdc2>
80000148:	37385537          	lui	a0,0x37385
8000014c:	65a50513          	addi	a0,a0,1626 # 3738565a <$xrv32i2p1_m2p0_zicsr2p0_zifencei2p0_zmmul1p0-0x48c7a9a6>
80000150:	4d85                	li	s11,1
80000152:	6afc68b7          	lui	a7,0x6afc6
80000156:	21488893          	addi	a7,a7,532 # 6afc6214 <$xrv32i2p1_m2p0_zicsr2p0_zifencei2p0_zmmul1p0-0x15039dec>
8000015a:	33478cb7          	lui	s9,0x33478
8000015e:	cc3c8c93          	addi	s9,s9,-829 # 33477cc3 <$xrv32i2p1_m2p0_zicsr2p0_zifencei2p0_zmmul1p0-0x4cb8833d>
80000162:	4685                	li	a3,1
80000164:	4985                	li	s3,1
80000166:	29109c37          	lui	s8,0x29109
8000016a:	0ddc0c13          	addi	s8,s8,221 # 291090dd <$xrv32i2p1_m2p0_zicsr2p0_zifencei2p0_zmmul1p0-0x56ef6f23>
8000016e:	0001                	nop
80000170:	03a2b533          	mulhu	a0,t0,s10
80000174:	6171                	addi	sp,sp,336
80000176:	02aadcb3          	divu	s9,s5,a0
8000017a:	0001                	nop
8000017c:	0001                	nop
8000017e:	03f0dbb3          	divu	s7,ra,t6
80000182:	50fd                	li	ra,-1
80000184:	f6410013          	addi	zero,sp,-156
80000188:	026fb433          	mulhu	s0,t6,t1
8000018c:	add7f8b7          	lui	a7,0xadd7f
80000190:	4099                	li	ra,6
80000192:	0198                	addi	a4,sp,192
80000194:	03156633          	rem	a2,a0,a7
80000198:	9df6                	add	s11,s11,t4
8000019a:	03a09033          	mulh	zero,ra,s10
8000019e:	8d97f013          	andi	zero,a5,-1831
800001a2:	8e91                	sub	a3,a3,a2
800001a4:	8d55                	or	a0,a0,a3
800001a6:	028f0933          	mul	s2,t5,s0
800001aa:	5ac0e693          	ori	a3,ra,1452
800001ae:	8eb5                	xor	a3,a3,a3
800001b0:	46e84c37          	lui	s8,0x46e84
800001b4:	8edd                	or	a3,a3,a5
800001b6:	0074be33          	sltu	t3,s1,t2
800001ba:	14fd                	addi	s1,s1,-1
800001bc:	50fd                	li	ra,-1
800001be:	00000f97          	auipc	t6,0x0
800001c2:	00cf8f93          	addi	t6,t6,12 # 800001ca <test_done>
800001c6:	000f8067          	jr	t6

800001ca <test_done>:
800001ca:	4185                	li	gp,1
800001cc:	00000073          	ecall

800001d0 <write_tohost>:
800001d0:	00002f17          	auipc	t5,0x2
800001d4:	e23f2823          	sw	gp,-464(t5) # 80002000 <tohost>

800001d8 <_exit>:
800001d8:	bfe5                	j	800001d0 <write_tohost>

800001da <instr_end>:
800001da:	0001                	nop

800001dc <mmode_intr_vector_1>:
800001dc:	340d1d73          	csrrw	s10,mscratch,s10
800001e0:	000f0d33          	add	s10,t5,zero
800001e4:	f84d0d13          	addi	s10,s10,-124
800001e8:	001d2223          	sw	ra,4(s10)
800001ec:	002d2423          	sw	sp,8(s10)
800001f0:	003d2623          	sw	gp,12(s10)
800001f4:	004d2823          	sw	tp,16(s10)
800001f8:	005d2a23          	sw	t0,20(s10)
800001fc:	006d2c23          	sw	t1,24(s10)
80000200:	007d2e23          	sw	t2,28(s10)
80000204:	028d2023          	sw	s0,32(s10)
80000208:	029d2223          	sw	s1,36(s10)
8000020c:	02ad2423          	sw	a0,40(s10)
80000210:	02bd2623          	sw	a1,44(s10)
80000214:	02cd2823          	sw	a2,48(s10)
80000218:	02dd2a23          	sw	a3,52(s10)
8000021c:	02ed2c23          	sw	a4,56(s10)
80000220:	02fd2e23          	sw	a5,60(s10)
80000224:	050d2023          	sw	a6,64(s10)
80000228:	051d2223          	sw	a7,68(s10)
8000022c:	052d2423          	sw	s2,72(s10)
80000230:	053d2623          	sw	s3,76(s10)
80000234:	054d2823          	sw	s4,80(s10)
80000238:	055d2a23          	sw	s5,84(s10)
8000023c:	056d2c23          	sw	s6,88(s10)
80000240:	057d2e23          	sw	s7,92(s10)
80000244:	078d2023          	sw	s8,96(s10)
80000248:	079d2223          	sw	s9,100(s10)
8000024c:	07ad2423          	sw	s10,104(s10)
80000250:	07bd2623          	sw	s11,108(s10)
80000254:	07cd2823          	sw	t3,112(s10)
80000258:	07dd2a23          	sw	t4,116(s10)
8000025c:	07ed2c23          	sw	t5,120(s10)
80000260:	07fd2e23          	sw	t6,124(s10)
80000264:	34202df3          	csrr	s11,mcause
80000268:	01fddd93          	srli	s11,s11,0x1f
8000026c:	000d8463          	beqz	s11,80000274 <mmode_intr_vector_1+0x98>
80000270:	50c0106f          	j	8000177c <mmode_intr_handler>
80000274:	00000f97          	auipc	t6,0x0
80000278:	f56f8f93          	addi	t6,t6,-170 # 800001ca <test_done>
8000027c:	000f8067          	jr	t6

80000280 <mmode_intr_vector_2>:
80000280:	340d1d73          	csrrw	s10,mscratch,s10
80000284:	000f0d33          	add	s10,t5,zero
80000288:	f84d0d13          	addi	s10,s10,-124
8000028c:	001d2223          	sw	ra,4(s10)
80000290:	002d2423          	sw	sp,8(s10)
80000294:	003d2623          	sw	gp,12(s10)
80000298:	004d2823          	sw	tp,16(s10)
8000029c:	005d2a23          	sw	t0,20(s10)
800002a0:	006d2c23          	sw	t1,24(s10)
800002a4:	007d2e23          	sw	t2,28(s10)
800002a8:	028d2023          	sw	s0,32(s10)
800002ac:	029d2223          	sw	s1,36(s10)
800002b0:	02ad2423          	sw	a0,40(s10)
800002b4:	02bd2623          	sw	a1,44(s10)
800002b8:	02cd2823          	sw	a2,48(s10)
800002bc:	02dd2a23          	sw	a3,52(s10)
800002c0:	02ed2c23          	sw	a4,56(s10)
800002c4:	02fd2e23          	sw	a5,60(s10)
800002c8:	050d2023          	sw	a6,64(s10)
800002cc:	051d2223          	sw	a7,68(s10)
800002d0:	052d2423          	sw	s2,72(s10)
800002d4:	053d2623          	sw	s3,76(s10)
800002d8:	054d2823          	sw	s4,80(s10)
800002dc:	055d2a23          	sw	s5,84(s10)
800002e0:	056d2c23          	sw	s6,88(s10)
800002e4:	057d2e23          	sw	s7,92(s10)
800002e8:	078d2023          	sw	s8,96(s10)
800002ec:	079d2223          	sw	s9,100(s10)
800002f0:	07ad2423          	sw	s10,104(s10)
800002f4:	07bd2623          	sw	s11,108(s10)
800002f8:	07cd2823          	sw	t3,112(s10)
800002fc:	07dd2a23          	sw	t4,116(s10)
80000300:	07ed2c23          	sw	t5,120(s10)
80000304:	07fd2e23          	sw	t6,124(s10)
80000308:	34202df3          	csrr	s11,mcause
8000030c:	01fddd93          	srli	s11,s11,0x1f
80000310:	000d8463          	beqz	s11,80000318 <mmode_intr_vector_2+0x98>
80000314:	4680106f          	j	8000177c <mmode_intr_handler>
80000318:	00000f97          	auipc	t6,0x0
8000031c:	eb2f8f93          	addi	t6,t6,-334 # 800001ca <test_done>
80000320:	000f8067          	jr	t6

80000324 <mmode_intr_vector_3>:
80000324:	340d1d73          	csrrw	s10,mscratch,s10
80000328:	000f0d33          	add	s10,t5,zero
8000032c:	f84d0d13          	addi	s10,s10,-124
80000330:	001d2223          	sw	ra,4(s10)
80000334:	002d2423          	sw	sp,8(s10)
80000338:	003d2623          	sw	gp,12(s10)
8000033c:	004d2823          	sw	tp,16(s10)
80000340:	005d2a23          	sw	t0,20(s10)
80000344:	006d2c23          	sw	t1,24(s10)
80000348:	007d2e23          	sw	t2,28(s10)
8000034c:	028d2023          	sw	s0,32(s10)
80000350:	029d2223          	sw	s1,36(s10)
80000354:	02ad2423          	sw	a0,40(s10)
80000358:	02bd2623          	sw	a1,44(s10)
8000035c:	02cd2823          	sw	a2,48(s10)
80000360:	02dd2a23          	sw	a3,52(s10)
80000364:	02ed2c23          	sw	a4,56(s10)
80000368:	02fd2e23          	sw	a5,60(s10)
8000036c:	050d2023          	sw	a6,64(s10)
80000370:	051d2223          	sw	a7,68(s10)
80000374:	052d2423          	sw	s2,72(s10)
80000378:	053d2623          	sw	s3,76(s10)
8000037c:	054d2823          	sw	s4,80(s10)
80000380:	055d2a23          	sw	s5,84(s10)
80000384:	056d2c23          	sw	s6,88(s10)
80000388:	057d2e23          	sw	s7,92(s10)
8000038c:	078d2023          	sw	s8,96(s10)
80000390:	079d2223          	sw	s9,100(s10)
80000394:	07ad2423          	sw	s10,104(s10)
80000398:	07bd2623          	sw	s11,108(s10)
8000039c:	07cd2823          	sw	t3,112(s10)
800003a0:	07dd2a23          	sw	t4,116(s10)
800003a4:	07ed2c23          	sw	t5,120(s10)
800003a8:	07fd2e23          	sw	t6,124(s10)
800003ac:	34202df3          	csrr	s11,mcause
800003b0:	01fddd93          	srli	s11,s11,0x1f
800003b4:	000d8463          	beqz	s11,800003bc <mmode_intr_vector_3+0x98>
800003b8:	3c40106f          	j	8000177c <mmode_intr_handler>
800003bc:	00000f97          	auipc	t6,0x0
800003c0:	e0ef8f93          	addi	t6,t6,-498 # 800001ca <test_done>
800003c4:	000f8067          	jr	t6

800003c8 <mmode_intr_vector_4>:
800003c8:	340d1d73          	csrrw	s10,mscratch,s10
800003cc:	000f0d33          	add	s10,t5,zero
800003d0:	f84d0d13          	addi	s10,s10,-124
800003d4:	001d2223          	sw	ra,4(s10)
800003d8:	002d2423          	sw	sp,8(s10)
800003dc:	003d2623          	sw	gp,12(s10)
800003e0:	004d2823          	sw	tp,16(s10)
800003e4:	005d2a23          	sw	t0,20(s10)
800003e8:	006d2c23          	sw	t1,24(s10)
800003ec:	007d2e23          	sw	t2,28(s10)
800003f0:	028d2023          	sw	s0,32(s10)
800003f4:	029d2223          	sw	s1,36(s10)
800003f8:	02ad2423          	sw	a0,40(s10)
800003fc:	02bd2623          	sw	a1,44(s10)
80000400:	02cd2823          	sw	a2,48(s10)
80000404:	02dd2a23          	sw	a3,52(s10)
80000408:	02ed2c23          	sw	a4,56(s10)
8000040c:	02fd2e23          	sw	a5,60(s10)
80000410:	050d2023          	sw	a6,64(s10)
80000414:	051d2223          	sw	a7,68(s10)
80000418:	052d2423          	sw	s2,72(s10)
8000041c:	053d2623          	sw	s3,76(s10)
80000420:	054d2823          	sw	s4,80(s10)
80000424:	055d2a23          	sw	s5,84(s10)
80000428:	056d2c23          	sw	s6,88(s10)
8000042c:	057d2e23          	sw	s7,92(s10)
80000430:	078d2023          	sw	s8,96(s10)
80000434:	079d2223          	sw	s9,100(s10)
80000438:	07ad2423          	sw	s10,104(s10)
8000043c:	07bd2623          	sw	s11,108(s10)
80000440:	07cd2823          	sw	t3,112(s10)
80000444:	07dd2a23          	sw	t4,116(s10)
80000448:	07ed2c23          	sw	t5,120(s10)
8000044c:	07fd2e23          	sw	t6,124(s10)
80000450:	34202df3          	csrr	s11,mcause
80000454:	01fddd93          	srli	s11,s11,0x1f
80000458:	000d8463          	beqz	s11,80000460 <mmode_intr_vector_4+0x98>
8000045c:	3200106f          	j	8000177c <mmode_intr_handler>
80000460:	00000f97          	auipc	t6,0x0
80000464:	d6af8f93          	addi	t6,t6,-662 # 800001ca <test_done>
80000468:	000f8067          	jr	t6

8000046c <mmode_intr_vector_5>:
8000046c:	340d1d73          	csrrw	s10,mscratch,s10
80000470:	000f0d33          	add	s10,t5,zero
80000474:	f84d0d13          	addi	s10,s10,-124
80000478:	001d2223          	sw	ra,4(s10)
8000047c:	002d2423          	sw	sp,8(s10)
80000480:	003d2623          	sw	gp,12(s10)
80000484:	004d2823          	sw	tp,16(s10)
80000488:	005d2a23          	sw	t0,20(s10)
8000048c:	006d2c23          	sw	t1,24(s10)
80000490:	007d2e23          	sw	t2,28(s10)
80000494:	028d2023          	sw	s0,32(s10)
80000498:	029d2223          	sw	s1,36(s10)
8000049c:	02ad2423          	sw	a0,40(s10)
800004a0:	02bd2623          	sw	a1,44(s10)
800004a4:	02cd2823          	sw	a2,48(s10)
800004a8:	02dd2a23          	sw	a3,52(s10)
800004ac:	02ed2c23          	sw	a4,56(s10)
800004b0:	02fd2e23          	sw	a5,60(s10)
800004b4:	050d2023          	sw	a6,64(s10)
800004b8:	051d2223          	sw	a7,68(s10)
800004bc:	052d2423          	sw	s2,72(s10)
800004c0:	053d2623          	sw	s3,76(s10)
800004c4:	054d2823          	sw	s4,80(s10)
800004c8:	055d2a23          	sw	s5,84(s10)
800004cc:	056d2c23          	sw	s6,88(s10)
800004d0:	057d2e23          	sw	s7,92(s10)
800004d4:	078d2023          	sw	s8,96(s10)
800004d8:	079d2223          	sw	s9,100(s10)
800004dc:	07ad2423          	sw	s10,104(s10)
800004e0:	07bd2623          	sw	s11,108(s10)
800004e4:	07cd2823          	sw	t3,112(s10)
800004e8:	07dd2a23          	sw	t4,116(s10)
800004ec:	07ed2c23          	sw	t5,120(s10)
800004f0:	07fd2e23          	sw	t6,124(s10)
800004f4:	34202df3          	csrr	s11,mcause
800004f8:	01fddd93          	srli	s11,s11,0x1f
800004fc:	000d8463          	beqz	s11,80000504 <mmode_intr_vector_5+0x98>
80000500:	27c0106f          	j	8000177c <mmode_intr_handler>
80000504:	00000f97          	auipc	t6,0x0
80000508:	cc6f8f93          	addi	t6,t6,-826 # 800001ca <test_done>
8000050c:	000f8067          	jr	t6

80000510 <mmode_intr_vector_6>:
80000510:	340d1d73          	csrrw	s10,mscratch,s10
80000514:	000f0d33          	add	s10,t5,zero
80000518:	f84d0d13          	addi	s10,s10,-124
8000051c:	001d2223          	sw	ra,4(s10)
80000520:	002d2423          	sw	sp,8(s10)
80000524:	003d2623          	sw	gp,12(s10)
80000528:	004d2823          	sw	tp,16(s10)
8000052c:	005d2a23          	sw	t0,20(s10)
80000530:	006d2c23          	sw	t1,24(s10)
80000534:	007d2e23          	sw	t2,28(s10)
80000538:	028d2023          	sw	s0,32(s10)
8000053c:	029d2223          	sw	s1,36(s10)
80000540:	02ad2423          	sw	a0,40(s10)
80000544:	02bd2623          	sw	a1,44(s10)
80000548:	02cd2823          	sw	a2,48(s10)
8000054c:	02dd2a23          	sw	a3,52(s10)
80000550:	02ed2c23          	sw	a4,56(s10)
80000554:	02fd2e23          	sw	a5,60(s10)
80000558:	050d2023          	sw	a6,64(s10)
8000055c:	051d2223          	sw	a7,68(s10)
80000560:	052d2423          	sw	s2,72(s10)
80000564:	053d2623          	sw	s3,76(s10)
80000568:	054d2823          	sw	s4,80(s10)
8000056c:	055d2a23          	sw	s5,84(s10)
80000570:	056d2c23          	sw	s6,88(s10)
80000574:	057d2e23          	sw	s7,92(s10)
80000578:	078d2023          	sw	s8,96(s10)
8000057c:	079d2223          	sw	s9,100(s10)
80000580:	07ad2423          	sw	s10,104(s10)
80000584:	07bd2623          	sw	s11,108(s10)
80000588:	07cd2823          	sw	t3,112(s10)
8000058c:	07dd2a23          	sw	t4,116(s10)
80000590:	07ed2c23          	sw	t5,120(s10)
80000594:	07fd2e23          	sw	t6,124(s10)
80000598:	34202df3          	csrr	s11,mcause
8000059c:	01fddd93          	srli	s11,s11,0x1f
800005a0:	000d8463          	beqz	s11,800005a8 <mmode_intr_vector_6+0x98>
800005a4:	1d80106f          	j	8000177c <mmode_intr_handler>
800005a8:	00000f97          	auipc	t6,0x0
800005ac:	c22f8f93          	addi	t6,t6,-990 # 800001ca <test_done>
800005b0:	000f8067          	jr	t6

800005b4 <mmode_intr_vector_7>:
800005b4:	340d1d73          	csrrw	s10,mscratch,s10
800005b8:	000f0d33          	add	s10,t5,zero
800005bc:	f84d0d13          	addi	s10,s10,-124
800005c0:	001d2223          	sw	ra,4(s10)
800005c4:	002d2423          	sw	sp,8(s10)
800005c8:	003d2623          	sw	gp,12(s10)
800005cc:	004d2823          	sw	tp,16(s10)
800005d0:	005d2a23          	sw	t0,20(s10)
800005d4:	006d2c23          	sw	t1,24(s10)
800005d8:	007d2e23          	sw	t2,28(s10)
800005dc:	028d2023          	sw	s0,32(s10)
800005e0:	029d2223          	sw	s1,36(s10)
800005e4:	02ad2423          	sw	a0,40(s10)
800005e8:	02bd2623          	sw	a1,44(s10)
800005ec:	02cd2823          	sw	a2,48(s10)
800005f0:	02dd2a23          	sw	a3,52(s10)
800005f4:	02ed2c23          	sw	a4,56(s10)
800005f8:	02fd2e23          	sw	a5,60(s10)
800005fc:	050d2023          	sw	a6,64(s10)
80000600:	051d2223          	sw	a7,68(s10)
80000604:	052d2423          	sw	s2,72(s10)
80000608:	053d2623          	sw	s3,76(s10)
8000060c:	054d2823          	sw	s4,80(s10)
80000610:	055d2a23          	sw	s5,84(s10)
80000614:	056d2c23          	sw	s6,88(s10)
80000618:	057d2e23          	sw	s7,92(s10)
8000061c:	078d2023          	sw	s8,96(s10)
80000620:	079d2223          	sw	s9,100(s10)
80000624:	07ad2423          	sw	s10,104(s10)
80000628:	07bd2623          	sw	s11,108(s10)
8000062c:	07cd2823          	sw	t3,112(s10)
80000630:	07dd2a23          	sw	t4,116(s10)
80000634:	07ed2c23          	sw	t5,120(s10)
80000638:	07fd2e23          	sw	t6,124(s10)
8000063c:	34202df3          	csrr	s11,mcause
80000640:	01fddd93          	srli	s11,s11,0x1f
80000644:	000d8463          	beqz	s11,8000064c <mmode_intr_vector_7+0x98>
80000648:	1340106f          	j	8000177c <mmode_intr_handler>
8000064c:	00000f97          	auipc	t6,0x0
80000650:	b7ef8f93          	addi	t6,t6,-1154 # 800001ca <test_done>
80000654:	000f8067          	jr	t6

80000658 <mmode_intr_vector_8>:
80000658:	340d1d73          	csrrw	s10,mscratch,s10
8000065c:	000f0d33          	add	s10,t5,zero
80000660:	f84d0d13          	addi	s10,s10,-124
80000664:	001d2223          	sw	ra,4(s10)
80000668:	002d2423          	sw	sp,8(s10)
8000066c:	003d2623          	sw	gp,12(s10)
80000670:	004d2823          	sw	tp,16(s10)
80000674:	005d2a23          	sw	t0,20(s10)
80000678:	006d2c23          	sw	t1,24(s10)
8000067c:	007d2e23          	sw	t2,28(s10)
80000680:	028d2023          	sw	s0,32(s10)
80000684:	029d2223          	sw	s1,36(s10)
80000688:	02ad2423          	sw	a0,40(s10)
8000068c:	02bd2623          	sw	a1,44(s10)
80000690:	02cd2823          	sw	a2,48(s10)
80000694:	02dd2a23          	sw	a3,52(s10)
80000698:	02ed2c23          	sw	a4,56(s10)
8000069c:	02fd2e23          	sw	a5,60(s10)
800006a0:	050d2023          	sw	a6,64(s10)
800006a4:	051d2223          	sw	a7,68(s10)
800006a8:	052d2423          	sw	s2,72(s10)
800006ac:	053d2623          	sw	s3,76(s10)
800006b0:	054d2823          	sw	s4,80(s10)
800006b4:	055d2a23          	sw	s5,84(s10)
800006b8:	056d2c23          	sw	s6,88(s10)
800006bc:	057d2e23          	sw	s7,92(s10)
800006c0:	078d2023          	sw	s8,96(s10)
800006c4:	079d2223          	sw	s9,100(s10)
800006c8:	07ad2423          	sw	s10,104(s10)
800006cc:	07bd2623          	sw	s11,108(s10)
800006d0:	07cd2823          	sw	t3,112(s10)
800006d4:	07dd2a23          	sw	t4,116(s10)
800006d8:	07ed2c23          	sw	t5,120(s10)
800006dc:	07fd2e23          	sw	t6,124(s10)
800006e0:	34202df3          	csrr	s11,mcause
800006e4:	01fddd93          	srli	s11,s11,0x1f
800006e8:	000d8463          	beqz	s11,800006f0 <mmode_intr_vector_8+0x98>
800006ec:	0900106f          	j	8000177c <mmode_intr_handler>
800006f0:	00000f97          	auipc	t6,0x0
800006f4:	adaf8f93          	addi	t6,t6,-1318 # 800001ca <test_done>
800006f8:	000f8067          	jr	t6

800006fc <mmode_intr_vector_9>:
800006fc:	340d1d73          	csrrw	s10,mscratch,s10
80000700:	000f0d33          	add	s10,t5,zero
80000704:	f84d0d13          	addi	s10,s10,-124
80000708:	001d2223          	sw	ra,4(s10)
8000070c:	002d2423          	sw	sp,8(s10)
80000710:	003d2623          	sw	gp,12(s10)
80000714:	004d2823          	sw	tp,16(s10)
80000718:	005d2a23          	sw	t0,20(s10)
8000071c:	006d2c23          	sw	t1,24(s10)
80000720:	007d2e23          	sw	t2,28(s10)
80000724:	028d2023          	sw	s0,32(s10)
80000728:	029d2223          	sw	s1,36(s10)
8000072c:	02ad2423          	sw	a0,40(s10)
80000730:	02bd2623          	sw	a1,44(s10)
80000734:	02cd2823          	sw	a2,48(s10)
80000738:	02dd2a23          	sw	a3,52(s10)
8000073c:	02ed2c23          	sw	a4,56(s10)
80000740:	02fd2e23          	sw	a5,60(s10)
80000744:	050d2023          	sw	a6,64(s10)
80000748:	051d2223          	sw	a7,68(s10)
8000074c:	052d2423          	sw	s2,72(s10)
80000750:	053d2623          	sw	s3,76(s10)
80000754:	054d2823          	sw	s4,80(s10)
80000758:	055d2a23          	sw	s5,84(s10)
8000075c:	056d2c23          	sw	s6,88(s10)
80000760:	057d2e23          	sw	s7,92(s10)
80000764:	078d2023          	sw	s8,96(s10)
80000768:	079d2223          	sw	s9,100(s10)
8000076c:	07ad2423          	sw	s10,104(s10)
80000770:	07bd2623          	sw	s11,108(s10)
80000774:	07cd2823          	sw	t3,112(s10)
80000778:	07dd2a23          	sw	t4,116(s10)
8000077c:	07ed2c23          	sw	t5,120(s10)
80000780:	07fd2e23          	sw	t6,124(s10)
80000784:	34202df3          	csrr	s11,mcause
80000788:	01fddd93          	srli	s11,s11,0x1f
8000078c:	000d8463          	beqz	s11,80000794 <mmode_intr_vector_9+0x98>
80000790:	7ed0006f          	j	8000177c <mmode_intr_handler>
80000794:	00000f97          	auipc	t6,0x0
80000798:	a36f8f93          	addi	t6,t6,-1482 # 800001ca <test_done>
8000079c:	000f8067          	jr	t6

800007a0 <mmode_intr_vector_10>:
800007a0:	340d1d73          	csrrw	s10,mscratch,s10
800007a4:	000f0d33          	add	s10,t5,zero
800007a8:	f84d0d13          	addi	s10,s10,-124
800007ac:	001d2223          	sw	ra,4(s10)
800007b0:	002d2423          	sw	sp,8(s10)
800007b4:	003d2623          	sw	gp,12(s10)
800007b8:	004d2823          	sw	tp,16(s10)
800007bc:	005d2a23          	sw	t0,20(s10)
800007c0:	006d2c23          	sw	t1,24(s10)
800007c4:	007d2e23          	sw	t2,28(s10)
800007c8:	028d2023          	sw	s0,32(s10)
800007cc:	029d2223          	sw	s1,36(s10)
800007d0:	02ad2423          	sw	a0,40(s10)
800007d4:	02bd2623          	sw	a1,44(s10)
800007d8:	02cd2823          	sw	a2,48(s10)
800007dc:	02dd2a23          	sw	a3,52(s10)
800007e0:	02ed2c23          	sw	a4,56(s10)
800007e4:	02fd2e23          	sw	a5,60(s10)
800007e8:	050d2023          	sw	a6,64(s10)
800007ec:	051d2223          	sw	a7,68(s10)
800007f0:	052d2423          	sw	s2,72(s10)
800007f4:	053d2623          	sw	s3,76(s10)
800007f8:	054d2823          	sw	s4,80(s10)
800007fc:	055d2a23          	sw	s5,84(s10)
80000800:	056d2c23          	sw	s6,88(s10)
80000804:	057d2e23          	sw	s7,92(s10)
80000808:	078d2023          	sw	s8,96(s10)
8000080c:	079d2223          	sw	s9,100(s10)
80000810:	07ad2423          	sw	s10,104(s10)
80000814:	07bd2623          	sw	s11,108(s10)
80000818:	07cd2823          	sw	t3,112(s10)
8000081c:	07dd2a23          	sw	t4,116(s10)
80000820:	07ed2c23          	sw	t5,120(s10)
80000824:	07fd2e23          	sw	t6,124(s10)
80000828:	34202df3          	csrr	s11,mcause
8000082c:	01fddd93          	srli	s11,s11,0x1f
80000830:	000d8463          	beqz	s11,80000838 <mmode_intr_vector_10+0x98>
80000834:	7490006f          	j	8000177c <mmode_intr_handler>
80000838:	00000f97          	auipc	t6,0x0
8000083c:	992f8f93          	addi	t6,t6,-1646 # 800001ca <test_done>
80000840:	000f8067          	jr	t6

80000844 <mmode_intr_vector_11>:
80000844:	340d1d73          	csrrw	s10,mscratch,s10
80000848:	000f0d33          	add	s10,t5,zero
8000084c:	f84d0d13          	addi	s10,s10,-124
80000850:	001d2223          	sw	ra,4(s10)
80000854:	002d2423          	sw	sp,8(s10)
80000858:	003d2623          	sw	gp,12(s10)
8000085c:	004d2823          	sw	tp,16(s10)
80000860:	005d2a23          	sw	t0,20(s10)
80000864:	006d2c23          	sw	t1,24(s10)
80000868:	007d2e23          	sw	t2,28(s10)
8000086c:	028d2023          	sw	s0,32(s10)
80000870:	029d2223          	sw	s1,36(s10)
80000874:	02ad2423          	sw	a0,40(s10)
80000878:	02bd2623          	sw	a1,44(s10)
8000087c:	02cd2823          	sw	a2,48(s10)
80000880:	02dd2a23          	sw	a3,52(s10)
80000884:	02ed2c23          	sw	a4,56(s10)
80000888:	02fd2e23          	sw	a5,60(s10)
8000088c:	050d2023          	sw	a6,64(s10)
80000890:	051d2223          	sw	a7,68(s10)
80000894:	052d2423          	sw	s2,72(s10)
80000898:	053d2623          	sw	s3,76(s10)
8000089c:	054d2823          	sw	s4,80(s10)
800008a0:	055d2a23          	sw	s5,84(s10)
800008a4:	056d2c23          	sw	s6,88(s10)
800008a8:	057d2e23          	sw	s7,92(s10)
800008ac:	078d2023          	sw	s8,96(s10)
800008b0:	079d2223          	sw	s9,100(s10)
800008b4:	07ad2423          	sw	s10,104(s10)
800008b8:	07bd2623          	sw	s11,108(s10)
800008bc:	07cd2823          	sw	t3,112(s10)
800008c0:	07dd2a23          	sw	t4,116(s10)
800008c4:	07ed2c23          	sw	t5,120(s10)
800008c8:	07fd2e23          	sw	t6,124(s10)
800008cc:	34202df3          	csrr	s11,mcause
800008d0:	01fddd93          	srli	s11,s11,0x1f
800008d4:	000d8463          	beqz	s11,800008dc <mmode_intr_vector_11+0x98>
800008d8:	6a50006f          	j	8000177c <mmode_intr_handler>
800008dc:	00000f97          	auipc	t6,0x0
800008e0:	8eef8f93          	addi	t6,t6,-1810 # 800001ca <test_done>
800008e4:	000f8067          	jr	t6

800008e8 <mmode_intr_vector_12>:
800008e8:	340d1d73          	csrrw	s10,mscratch,s10
800008ec:	000f0d33          	add	s10,t5,zero
800008f0:	f84d0d13          	addi	s10,s10,-124
800008f4:	001d2223          	sw	ra,4(s10)
800008f8:	002d2423          	sw	sp,8(s10)
800008fc:	003d2623          	sw	gp,12(s10)
80000900:	004d2823          	sw	tp,16(s10)
80000904:	005d2a23          	sw	t0,20(s10)
80000908:	006d2c23          	sw	t1,24(s10)
8000090c:	007d2e23          	sw	t2,28(s10)
80000910:	028d2023          	sw	s0,32(s10)
80000914:	029d2223          	sw	s1,36(s10)
80000918:	02ad2423          	sw	a0,40(s10)
8000091c:	02bd2623          	sw	a1,44(s10)
80000920:	02cd2823          	sw	a2,48(s10)
80000924:	02dd2a23          	sw	a3,52(s10)
80000928:	02ed2c23          	sw	a4,56(s10)
8000092c:	02fd2e23          	sw	a5,60(s10)
80000930:	050d2023          	sw	a6,64(s10)
80000934:	051d2223          	sw	a7,68(s10)
80000938:	052d2423          	sw	s2,72(s10)
8000093c:	053d2623          	sw	s3,76(s10)
80000940:	054d2823          	sw	s4,80(s10)
80000944:	055d2a23          	sw	s5,84(s10)
80000948:	056d2c23          	sw	s6,88(s10)
8000094c:	057d2e23          	sw	s7,92(s10)
80000950:	078d2023          	sw	s8,96(s10)
80000954:	079d2223          	sw	s9,100(s10)
80000958:	07ad2423          	sw	s10,104(s10)
8000095c:	07bd2623          	sw	s11,108(s10)
80000960:	07cd2823          	sw	t3,112(s10)
80000964:	07dd2a23          	sw	t4,116(s10)
80000968:	07ed2c23          	sw	t5,120(s10)
8000096c:	07fd2e23          	sw	t6,124(s10)
80000970:	34202df3          	csrr	s11,mcause
80000974:	01fddd93          	srli	s11,s11,0x1f
80000978:	000d8463          	beqz	s11,80000980 <mmode_intr_vector_12+0x98>
8000097c:	6010006f          	j	8000177c <mmode_intr_handler>
80000980:	00000f97          	auipc	t6,0x0
80000984:	84af8f93          	addi	t6,t6,-1974 # 800001ca <test_done>
80000988:	000f8067          	jr	t6

8000098c <mmode_intr_vector_13>:
8000098c:	340d1d73          	csrrw	s10,mscratch,s10
80000990:	000f0d33          	add	s10,t5,zero
80000994:	f84d0d13          	addi	s10,s10,-124
80000998:	001d2223          	sw	ra,4(s10)
8000099c:	002d2423          	sw	sp,8(s10)
800009a0:	003d2623          	sw	gp,12(s10)
800009a4:	004d2823          	sw	tp,16(s10)
800009a8:	005d2a23          	sw	t0,20(s10)
800009ac:	006d2c23          	sw	t1,24(s10)
800009b0:	007d2e23          	sw	t2,28(s10)
800009b4:	028d2023          	sw	s0,32(s10)
800009b8:	029d2223          	sw	s1,36(s10)
800009bc:	02ad2423          	sw	a0,40(s10)
800009c0:	02bd2623          	sw	a1,44(s10)
800009c4:	02cd2823          	sw	a2,48(s10)
800009c8:	02dd2a23          	sw	a3,52(s10)
800009cc:	02ed2c23          	sw	a4,56(s10)
800009d0:	02fd2e23          	sw	a5,60(s10)
800009d4:	050d2023          	sw	a6,64(s10)
800009d8:	051d2223          	sw	a7,68(s10)
800009dc:	052d2423          	sw	s2,72(s10)
800009e0:	053d2623          	sw	s3,76(s10)
800009e4:	054d2823          	sw	s4,80(s10)
800009e8:	055d2a23          	sw	s5,84(s10)
800009ec:	056d2c23          	sw	s6,88(s10)
800009f0:	057d2e23          	sw	s7,92(s10)
800009f4:	078d2023          	sw	s8,96(s10)
800009f8:	079d2223          	sw	s9,100(s10)
800009fc:	07ad2423          	sw	s10,104(s10)
80000a00:	07bd2623          	sw	s11,108(s10)
80000a04:	07cd2823          	sw	t3,112(s10)
80000a08:	07dd2a23          	sw	t4,116(s10)
80000a0c:	07ed2c23          	sw	t5,120(s10)
80000a10:	07fd2e23          	sw	t6,124(s10)
80000a14:	34202df3          	csrr	s11,mcause
80000a18:	01fddd93          	srli	s11,s11,0x1f
80000a1c:	000d8463          	beqz	s11,80000a24 <mmode_intr_vector_13+0x98>
80000a20:	55d0006f          	j	8000177c <mmode_intr_handler>
80000a24:	ffffff97          	auipc	t6,0xfffff
80000a28:	7a6f8f93          	addi	t6,t6,1958 # 800001ca <test_done>
80000a2c:	000f8067          	jr	t6

80000a30 <mmode_intr_vector_14>:
80000a30:	340d1d73          	csrrw	s10,mscratch,s10
80000a34:	000f0d33          	add	s10,t5,zero
80000a38:	f84d0d13          	addi	s10,s10,-124
80000a3c:	001d2223          	sw	ra,4(s10)
80000a40:	002d2423          	sw	sp,8(s10)
80000a44:	003d2623          	sw	gp,12(s10)
80000a48:	004d2823          	sw	tp,16(s10)
80000a4c:	005d2a23          	sw	t0,20(s10)
80000a50:	006d2c23          	sw	t1,24(s10)
80000a54:	007d2e23          	sw	t2,28(s10)
80000a58:	028d2023          	sw	s0,32(s10)
80000a5c:	029d2223          	sw	s1,36(s10)
80000a60:	02ad2423          	sw	a0,40(s10)
80000a64:	02bd2623          	sw	a1,44(s10)
80000a68:	02cd2823          	sw	a2,48(s10)
80000a6c:	02dd2a23          	sw	a3,52(s10)
80000a70:	02ed2c23          	sw	a4,56(s10)
80000a74:	02fd2e23          	sw	a5,60(s10)
80000a78:	050d2023          	sw	a6,64(s10)
80000a7c:	051d2223          	sw	a7,68(s10)
80000a80:	052d2423          	sw	s2,72(s10)
80000a84:	053d2623          	sw	s3,76(s10)
80000a88:	054d2823          	sw	s4,80(s10)
80000a8c:	055d2a23          	sw	s5,84(s10)
80000a90:	056d2c23          	sw	s6,88(s10)
80000a94:	057d2e23          	sw	s7,92(s10)
80000a98:	078d2023          	sw	s8,96(s10)
80000a9c:	079d2223          	sw	s9,100(s10)
80000aa0:	07ad2423          	sw	s10,104(s10)
80000aa4:	07bd2623          	sw	s11,108(s10)
80000aa8:	07cd2823          	sw	t3,112(s10)
80000aac:	07dd2a23          	sw	t4,116(s10)
80000ab0:	07ed2c23          	sw	t5,120(s10)
80000ab4:	07fd2e23          	sw	t6,124(s10)
80000ab8:	34202df3          	csrr	s11,mcause
80000abc:	01fddd93          	srli	s11,s11,0x1f
80000ac0:	000d8463          	beqz	s11,80000ac8 <mmode_intr_vector_14+0x98>
80000ac4:	4b90006f          	j	8000177c <mmode_intr_handler>
80000ac8:	ffffff97          	auipc	t6,0xfffff
80000acc:	702f8f93          	addi	t6,t6,1794 # 800001ca <test_done>
80000ad0:	000f8067          	jr	t6

80000ad4 <mmode_intr_vector_15>:
80000ad4:	340d1d73          	csrrw	s10,mscratch,s10
80000ad8:	000f0d33          	add	s10,t5,zero
80000adc:	f84d0d13          	addi	s10,s10,-124
80000ae0:	001d2223          	sw	ra,4(s10)
80000ae4:	002d2423          	sw	sp,8(s10)
80000ae8:	003d2623          	sw	gp,12(s10)
80000aec:	004d2823          	sw	tp,16(s10)
80000af0:	005d2a23          	sw	t0,20(s10)
80000af4:	006d2c23          	sw	t1,24(s10)
80000af8:	007d2e23          	sw	t2,28(s10)
80000afc:	028d2023          	sw	s0,32(s10)
80000b00:	029d2223          	sw	s1,36(s10)
80000b04:	02ad2423          	sw	a0,40(s10)
80000b08:	02bd2623          	sw	a1,44(s10)
80000b0c:	02cd2823          	sw	a2,48(s10)
80000b10:	02dd2a23          	sw	a3,52(s10)
80000b14:	02ed2c23          	sw	a4,56(s10)
80000b18:	02fd2e23          	sw	a5,60(s10)
80000b1c:	050d2023          	sw	a6,64(s10)
80000b20:	051d2223          	sw	a7,68(s10)
80000b24:	052d2423          	sw	s2,72(s10)
80000b28:	053d2623          	sw	s3,76(s10)
80000b2c:	054d2823          	sw	s4,80(s10)
80000b30:	055d2a23          	sw	s5,84(s10)
80000b34:	056d2c23          	sw	s6,88(s10)
80000b38:	057d2e23          	sw	s7,92(s10)
80000b3c:	078d2023          	sw	s8,96(s10)
80000b40:	079d2223          	sw	s9,100(s10)
80000b44:	07ad2423          	sw	s10,104(s10)
80000b48:	07bd2623          	sw	s11,108(s10)
80000b4c:	07cd2823          	sw	t3,112(s10)
80000b50:	07dd2a23          	sw	t4,116(s10)
80000b54:	07ed2c23          	sw	t5,120(s10)
80000b58:	07fd2e23          	sw	t6,124(s10)
80000b5c:	34202df3          	csrr	s11,mcause
80000b60:	01fddd93          	srli	s11,s11,0x1f
80000b64:	000d8463          	beqz	s11,80000b6c <mmode_intr_vector_15+0x98>
80000b68:	4150006f          	j	8000177c <mmode_intr_handler>
80000b6c:	ffffff97          	auipc	t6,0xfffff
80000b70:	65ef8f93          	addi	t6,t6,1630 # 800001ca <test_done>
80000b74:	000f8067          	jr	t6

80000b78 <mmode_intr_vector_16>:
80000b78:	340d1d73          	csrrw	s10,mscratch,s10
80000b7c:	000f0d33          	add	s10,t5,zero
80000b80:	f84d0d13          	addi	s10,s10,-124
80000b84:	001d2223          	sw	ra,4(s10)
80000b88:	002d2423          	sw	sp,8(s10)
80000b8c:	003d2623          	sw	gp,12(s10)
80000b90:	004d2823          	sw	tp,16(s10)
80000b94:	005d2a23          	sw	t0,20(s10)
80000b98:	006d2c23          	sw	t1,24(s10)
80000b9c:	007d2e23          	sw	t2,28(s10)
80000ba0:	028d2023          	sw	s0,32(s10)
80000ba4:	029d2223          	sw	s1,36(s10)
80000ba8:	02ad2423          	sw	a0,40(s10)
80000bac:	02bd2623          	sw	a1,44(s10)
80000bb0:	02cd2823          	sw	a2,48(s10)
80000bb4:	02dd2a23          	sw	a3,52(s10)
80000bb8:	02ed2c23          	sw	a4,56(s10)
80000bbc:	02fd2e23          	sw	a5,60(s10)
80000bc0:	050d2023          	sw	a6,64(s10)
80000bc4:	051d2223          	sw	a7,68(s10)
80000bc8:	052d2423          	sw	s2,72(s10)
80000bcc:	053d2623          	sw	s3,76(s10)
80000bd0:	054d2823          	sw	s4,80(s10)
80000bd4:	055d2a23          	sw	s5,84(s10)
80000bd8:	056d2c23          	sw	s6,88(s10)
80000bdc:	057d2e23          	sw	s7,92(s10)
80000be0:	078d2023          	sw	s8,96(s10)
80000be4:	079d2223          	sw	s9,100(s10)
80000be8:	07ad2423          	sw	s10,104(s10)
80000bec:	07bd2623          	sw	s11,108(s10)
80000bf0:	07cd2823          	sw	t3,112(s10)
80000bf4:	07dd2a23          	sw	t4,116(s10)
80000bf8:	07ed2c23          	sw	t5,120(s10)
80000bfc:	07fd2e23          	sw	t6,124(s10)
80000c00:	34202df3          	csrr	s11,mcause
80000c04:	01fddd93          	srli	s11,s11,0x1f
80000c08:	000d8463          	beqz	s11,80000c10 <mmode_intr_vector_16+0x98>
80000c0c:	3710006f          	j	8000177c <mmode_intr_handler>
80000c10:	ffffff97          	auipc	t6,0xfffff
80000c14:	5baf8f93          	addi	t6,t6,1466 # 800001ca <test_done>
80000c18:	000f8067          	jr	t6

80000c1c <mmode_intr_vector_17>:
80000c1c:	340d1d73          	csrrw	s10,mscratch,s10
80000c20:	000f0d33          	add	s10,t5,zero
80000c24:	f84d0d13          	addi	s10,s10,-124
80000c28:	001d2223          	sw	ra,4(s10)
80000c2c:	002d2423          	sw	sp,8(s10)
80000c30:	003d2623          	sw	gp,12(s10)
80000c34:	004d2823          	sw	tp,16(s10)
80000c38:	005d2a23          	sw	t0,20(s10)
80000c3c:	006d2c23          	sw	t1,24(s10)
80000c40:	007d2e23          	sw	t2,28(s10)
80000c44:	028d2023          	sw	s0,32(s10)
80000c48:	029d2223          	sw	s1,36(s10)
80000c4c:	02ad2423          	sw	a0,40(s10)
80000c50:	02bd2623          	sw	a1,44(s10)
80000c54:	02cd2823          	sw	a2,48(s10)
80000c58:	02dd2a23          	sw	a3,52(s10)
80000c5c:	02ed2c23          	sw	a4,56(s10)
80000c60:	02fd2e23          	sw	a5,60(s10)
80000c64:	050d2023          	sw	a6,64(s10)
80000c68:	051d2223          	sw	a7,68(s10)
80000c6c:	052d2423          	sw	s2,72(s10)
80000c70:	053d2623          	sw	s3,76(s10)
80000c74:	054d2823          	sw	s4,80(s10)
80000c78:	055d2a23          	sw	s5,84(s10)
80000c7c:	056d2c23          	sw	s6,88(s10)
80000c80:	057d2e23          	sw	s7,92(s10)
80000c84:	078d2023          	sw	s8,96(s10)
80000c88:	079d2223          	sw	s9,100(s10)
80000c8c:	07ad2423          	sw	s10,104(s10)
80000c90:	07bd2623          	sw	s11,108(s10)
80000c94:	07cd2823          	sw	t3,112(s10)
80000c98:	07dd2a23          	sw	t4,116(s10)
80000c9c:	07ed2c23          	sw	t5,120(s10)
80000ca0:	07fd2e23          	sw	t6,124(s10)
80000ca4:	34202df3          	csrr	s11,mcause
80000ca8:	01fddd93          	srli	s11,s11,0x1f
80000cac:	000d8463          	beqz	s11,80000cb4 <mmode_intr_vector_17+0x98>
80000cb0:	2cd0006f          	j	8000177c <mmode_intr_handler>
80000cb4:	ffffff97          	auipc	t6,0xfffff
80000cb8:	516f8f93          	addi	t6,t6,1302 # 800001ca <test_done>
80000cbc:	000f8067          	jr	t6

80000cc0 <mmode_intr_vector_18>:
80000cc0:	340d1d73          	csrrw	s10,mscratch,s10
80000cc4:	000f0d33          	add	s10,t5,zero
80000cc8:	f84d0d13          	addi	s10,s10,-124
80000ccc:	001d2223          	sw	ra,4(s10)
80000cd0:	002d2423          	sw	sp,8(s10)
80000cd4:	003d2623          	sw	gp,12(s10)
80000cd8:	004d2823          	sw	tp,16(s10)
80000cdc:	005d2a23          	sw	t0,20(s10)
80000ce0:	006d2c23          	sw	t1,24(s10)
80000ce4:	007d2e23          	sw	t2,28(s10)
80000ce8:	028d2023          	sw	s0,32(s10)
80000cec:	029d2223          	sw	s1,36(s10)
80000cf0:	02ad2423          	sw	a0,40(s10)
80000cf4:	02bd2623          	sw	a1,44(s10)
80000cf8:	02cd2823          	sw	a2,48(s10)
80000cfc:	02dd2a23          	sw	a3,52(s10)
80000d00:	02ed2c23          	sw	a4,56(s10)
80000d04:	02fd2e23          	sw	a5,60(s10)
80000d08:	050d2023          	sw	a6,64(s10)
80000d0c:	051d2223          	sw	a7,68(s10)
80000d10:	052d2423          	sw	s2,72(s10)
80000d14:	053d2623          	sw	s3,76(s10)
80000d18:	054d2823          	sw	s4,80(s10)
80000d1c:	055d2a23          	sw	s5,84(s10)
80000d20:	056d2c23          	sw	s6,88(s10)
80000d24:	057d2e23          	sw	s7,92(s10)
80000d28:	078d2023          	sw	s8,96(s10)
80000d2c:	079d2223          	sw	s9,100(s10)
80000d30:	07ad2423          	sw	s10,104(s10)
80000d34:	07bd2623          	sw	s11,108(s10)
80000d38:	07cd2823          	sw	t3,112(s10)
80000d3c:	07dd2a23          	sw	t4,116(s10)
80000d40:	07ed2c23          	sw	t5,120(s10)
80000d44:	07fd2e23          	sw	t6,124(s10)
80000d48:	34202df3          	csrr	s11,mcause
80000d4c:	01fddd93          	srli	s11,s11,0x1f
80000d50:	000d8463          	beqz	s11,80000d58 <mmode_intr_vector_18+0x98>
80000d54:	2290006f          	j	8000177c <mmode_intr_handler>
80000d58:	ffffff97          	auipc	t6,0xfffff
80000d5c:	472f8f93          	addi	t6,t6,1138 # 800001ca <test_done>
80000d60:	000f8067          	jr	t6

80000d64 <mmode_intr_vector_19>:
80000d64:	340d1d73          	csrrw	s10,mscratch,s10
80000d68:	000f0d33          	add	s10,t5,zero
80000d6c:	f84d0d13          	addi	s10,s10,-124
80000d70:	001d2223          	sw	ra,4(s10)
80000d74:	002d2423          	sw	sp,8(s10)
80000d78:	003d2623          	sw	gp,12(s10)
80000d7c:	004d2823          	sw	tp,16(s10)
80000d80:	005d2a23          	sw	t0,20(s10)
80000d84:	006d2c23          	sw	t1,24(s10)
80000d88:	007d2e23          	sw	t2,28(s10)
80000d8c:	028d2023          	sw	s0,32(s10)
80000d90:	029d2223          	sw	s1,36(s10)
80000d94:	02ad2423          	sw	a0,40(s10)
80000d98:	02bd2623          	sw	a1,44(s10)
80000d9c:	02cd2823          	sw	a2,48(s10)
80000da0:	02dd2a23          	sw	a3,52(s10)
80000da4:	02ed2c23          	sw	a4,56(s10)
80000da8:	02fd2e23          	sw	a5,60(s10)
80000dac:	050d2023          	sw	a6,64(s10)
80000db0:	051d2223          	sw	a7,68(s10)
80000db4:	052d2423          	sw	s2,72(s10)
80000db8:	053d2623          	sw	s3,76(s10)
80000dbc:	054d2823          	sw	s4,80(s10)
80000dc0:	055d2a23          	sw	s5,84(s10)
80000dc4:	056d2c23          	sw	s6,88(s10)
80000dc8:	057d2e23          	sw	s7,92(s10)
80000dcc:	078d2023          	sw	s8,96(s10)
80000dd0:	079d2223          	sw	s9,100(s10)
80000dd4:	07ad2423          	sw	s10,104(s10)
80000dd8:	07bd2623          	sw	s11,108(s10)
80000ddc:	07cd2823          	sw	t3,112(s10)
80000de0:	07dd2a23          	sw	t4,116(s10)
80000de4:	07ed2c23          	sw	t5,120(s10)
80000de8:	07fd2e23          	sw	t6,124(s10)
80000dec:	34202df3          	csrr	s11,mcause
80000df0:	01fddd93          	srli	s11,s11,0x1f
80000df4:	000d8463          	beqz	s11,80000dfc <mmode_intr_vector_19+0x98>
80000df8:	1850006f          	j	8000177c <mmode_intr_handler>
80000dfc:	ffffff97          	auipc	t6,0xfffff
80000e00:	3cef8f93          	addi	t6,t6,974 # 800001ca <test_done>
80000e04:	000f8067          	jr	t6

80000e08 <mmode_intr_vector_20>:
80000e08:	340d1d73          	csrrw	s10,mscratch,s10
80000e0c:	000f0d33          	add	s10,t5,zero
80000e10:	f84d0d13          	addi	s10,s10,-124
80000e14:	001d2223          	sw	ra,4(s10)
80000e18:	002d2423          	sw	sp,8(s10)
80000e1c:	003d2623          	sw	gp,12(s10)
80000e20:	004d2823          	sw	tp,16(s10)
80000e24:	005d2a23          	sw	t0,20(s10)
80000e28:	006d2c23          	sw	t1,24(s10)
80000e2c:	007d2e23          	sw	t2,28(s10)
80000e30:	028d2023          	sw	s0,32(s10)
80000e34:	029d2223          	sw	s1,36(s10)
80000e38:	02ad2423          	sw	a0,40(s10)
80000e3c:	02bd2623          	sw	a1,44(s10)
80000e40:	02cd2823          	sw	a2,48(s10)
80000e44:	02dd2a23          	sw	a3,52(s10)
80000e48:	02ed2c23          	sw	a4,56(s10)
80000e4c:	02fd2e23          	sw	a5,60(s10)
80000e50:	050d2023          	sw	a6,64(s10)
80000e54:	051d2223          	sw	a7,68(s10)
80000e58:	052d2423          	sw	s2,72(s10)
80000e5c:	053d2623          	sw	s3,76(s10)
80000e60:	054d2823          	sw	s4,80(s10)
80000e64:	055d2a23          	sw	s5,84(s10)
80000e68:	056d2c23          	sw	s6,88(s10)
80000e6c:	057d2e23          	sw	s7,92(s10)
80000e70:	078d2023          	sw	s8,96(s10)
80000e74:	079d2223          	sw	s9,100(s10)
80000e78:	07ad2423          	sw	s10,104(s10)
80000e7c:	07bd2623          	sw	s11,108(s10)
80000e80:	07cd2823          	sw	t3,112(s10)
80000e84:	07dd2a23          	sw	t4,116(s10)
80000e88:	07ed2c23          	sw	t5,120(s10)
80000e8c:	07fd2e23          	sw	t6,124(s10)
80000e90:	34202df3          	csrr	s11,mcause
80000e94:	01fddd93          	srli	s11,s11,0x1f
80000e98:	000d8463          	beqz	s11,80000ea0 <mmode_intr_vector_20+0x98>
80000e9c:	0e10006f          	j	8000177c <mmode_intr_handler>
80000ea0:	ffffff97          	auipc	t6,0xfffff
80000ea4:	32af8f93          	addi	t6,t6,810 # 800001ca <test_done>
80000ea8:	000f8067          	jr	t6

80000eac <mmode_intr_vector_21>:
80000eac:	340d1d73          	csrrw	s10,mscratch,s10
80000eb0:	000f0d33          	add	s10,t5,zero
80000eb4:	f84d0d13          	addi	s10,s10,-124
80000eb8:	001d2223          	sw	ra,4(s10)
80000ebc:	002d2423          	sw	sp,8(s10)
80000ec0:	003d2623          	sw	gp,12(s10)
80000ec4:	004d2823          	sw	tp,16(s10)
80000ec8:	005d2a23          	sw	t0,20(s10)
80000ecc:	006d2c23          	sw	t1,24(s10)
80000ed0:	007d2e23          	sw	t2,28(s10)
80000ed4:	028d2023          	sw	s0,32(s10)
80000ed8:	029d2223          	sw	s1,36(s10)
80000edc:	02ad2423          	sw	a0,40(s10)
80000ee0:	02bd2623          	sw	a1,44(s10)
80000ee4:	02cd2823          	sw	a2,48(s10)
80000ee8:	02dd2a23          	sw	a3,52(s10)
80000eec:	02ed2c23          	sw	a4,56(s10)
80000ef0:	02fd2e23          	sw	a5,60(s10)
80000ef4:	050d2023          	sw	a6,64(s10)
80000ef8:	051d2223          	sw	a7,68(s10)
80000efc:	052d2423          	sw	s2,72(s10)
80000f00:	053d2623          	sw	s3,76(s10)
80000f04:	054d2823          	sw	s4,80(s10)
80000f08:	055d2a23          	sw	s5,84(s10)
80000f0c:	056d2c23          	sw	s6,88(s10)
80000f10:	057d2e23          	sw	s7,92(s10)
80000f14:	078d2023          	sw	s8,96(s10)
80000f18:	079d2223          	sw	s9,100(s10)
80000f1c:	07ad2423          	sw	s10,104(s10)
80000f20:	07bd2623          	sw	s11,108(s10)
80000f24:	07cd2823          	sw	t3,112(s10)
80000f28:	07dd2a23          	sw	t4,116(s10)
80000f2c:	07ed2c23          	sw	t5,120(s10)
80000f30:	07fd2e23          	sw	t6,124(s10)
80000f34:	34202df3          	csrr	s11,mcause
80000f38:	01fddd93          	srli	s11,s11,0x1f
80000f3c:	000d8463          	beqz	s11,80000f44 <mmode_intr_vector_21+0x98>
80000f40:	03d0006f          	j	8000177c <mmode_intr_handler>
80000f44:	ffffff97          	auipc	t6,0xfffff
80000f48:	286f8f93          	addi	t6,t6,646 # 800001ca <test_done>
80000f4c:	000f8067          	jr	t6

80000f50 <mmode_intr_vector_22>:
80000f50:	340d1d73          	csrrw	s10,mscratch,s10
80000f54:	000f0d33          	add	s10,t5,zero
80000f58:	f84d0d13          	addi	s10,s10,-124
80000f5c:	001d2223          	sw	ra,4(s10)
80000f60:	002d2423          	sw	sp,8(s10)
80000f64:	003d2623          	sw	gp,12(s10)
80000f68:	004d2823          	sw	tp,16(s10)
80000f6c:	005d2a23          	sw	t0,20(s10)
80000f70:	006d2c23          	sw	t1,24(s10)
80000f74:	007d2e23          	sw	t2,28(s10)
80000f78:	028d2023          	sw	s0,32(s10)
80000f7c:	029d2223          	sw	s1,36(s10)
80000f80:	02ad2423          	sw	a0,40(s10)
80000f84:	02bd2623          	sw	a1,44(s10)
80000f88:	02cd2823          	sw	a2,48(s10)
80000f8c:	02dd2a23          	sw	a3,52(s10)
80000f90:	02ed2c23          	sw	a4,56(s10)
80000f94:	02fd2e23          	sw	a5,60(s10)
80000f98:	050d2023          	sw	a6,64(s10)
80000f9c:	051d2223          	sw	a7,68(s10)
80000fa0:	052d2423          	sw	s2,72(s10)
80000fa4:	053d2623          	sw	s3,76(s10)
80000fa8:	054d2823          	sw	s4,80(s10)
80000fac:	055d2a23          	sw	s5,84(s10)
80000fb0:	056d2c23          	sw	s6,88(s10)
80000fb4:	057d2e23          	sw	s7,92(s10)
80000fb8:	078d2023          	sw	s8,96(s10)
80000fbc:	079d2223          	sw	s9,100(s10)
80000fc0:	07ad2423          	sw	s10,104(s10)
80000fc4:	07bd2623          	sw	s11,108(s10)
80000fc8:	07cd2823          	sw	t3,112(s10)
80000fcc:	07dd2a23          	sw	t4,116(s10)
80000fd0:	07ed2c23          	sw	t5,120(s10)
80000fd4:	07fd2e23          	sw	t6,124(s10)
80000fd8:	34202df3          	csrr	s11,mcause
80000fdc:	01fddd93          	srli	s11,s11,0x1f
80000fe0:	000d8363          	beqz	s11,80000fe6 <mmode_intr_vector_22+0x96>
80000fe4:	af61                	j	8000177c <mmode_intr_handler>
80000fe6:	ffffff97          	auipc	t6,0xfffff
80000fea:	1e4f8f93          	addi	t6,t6,484 # 800001ca <test_done>
80000fee:	000f8067          	jr	t6

80000ff2 <mmode_intr_vector_23>:
80000ff2:	340d1d73          	csrrw	s10,mscratch,s10
80000ff6:	000f0d33          	add	s10,t5,zero
80000ffa:	f84d0d13          	addi	s10,s10,-124
80000ffe:	001d2223          	sw	ra,4(s10)
80001002:	002d2423          	sw	sp,8(s10)
80001006:	003d2623          	sw	gp,12(s10)
8000100a:	004d2823          	sw	tp,16(s10)
8000100e:	005d2a23          	sw	t0,20(s10)
80001012:	006d2c23          	sw	t1,24(s10)
80001016:	007d2e23          	sw	t2,28(s10)
8000101a:	028d2023          	sw	s0,32(s10)
8000101e:	029d2223          	sw	s1,36(s10)
80001022:	02ad2423          	sw	a0,40(s10)
80001026:	02bd2623          	sw	a1,44(s10)
8000102a:	02cd2823          	sw	a2,48(s10)
8000102e:	02dd2a23          	sw	a3,52(s10)
80001032:	02ed2c23          	sw	a4,56(s10)
80001036:	02fd2e23          	sw	a5,60(s10)
8000103a:	050d2023          	sw	a6,64(s10)
8000103e:	051d2223          	sw	a7,68(s10)
80001042:	052d2423          	sw	s2,72(s10)
80001046:	053d2623          	sw	s3,76(s10)
8000104a:	054d2823          	sw	s4,80(s10)
8000104e:	055d2a23          	sw	s5,84(s10)
80001052:	056d2c23          	sw	s6,88(s10)
80001056:	057d2e23          	sw	s7,92(s10)
8000105a:	078d2023          	sw	s8,96(s10)
8000105e:	079d2223          	sw	s9,100(s10)
80001062:	07ad2423          	sw	s10,104(s10)
80001066:	07bd2623          	sw	s11,108(s10)
8000106a:	07cd2823          	sw	t3,112(s10)
8000106e:	07dd2a23          	sw	t4,116(s10)
80001072:	07ed2c23          	sw	t5,120(s10)
80001076:	07fd2e23          	sw	t6,124(s10)
8000107a:	34202df3          	csrr	s11,mcause
8000107e:	01fddd93          	srli	s11,s11,0x1f
80001082:	000d8363          	beqz	s11,80001088 <mmode_intr_vector_23+0x96>
80001086:	addd                	j	8000177c <mmode_intr_handler>
80001088:	ffffff97          	auipc	t6,0xfffff
8000108c:	142f8f93          	addi	t6,t6,322 # 800001ca <test_done>
80001090:	000f8067          	jr	t6

80001094 <mmode_intr_vector_24>:
80001094:	340d1d73          	csrrw	s10,mscratch,s10
80001098:	000f0d33          	add	s10,t5,zero
8000109c:	f84d0d13          	addi	s10,s10,-124
800010a0:	001d2223          	sw	ra,4(s10)
800010a4:	002d2423          	sw	sp,8(s10)
800010a8:	003d2623          	sw	gp,12(s10)
800010ac:	004d2823          	sw	tp,16(s10)
800010b0:	005d2a23          	sw	t0,20(s10)
800010b4:	006d2c23          	sw	t1,24(s10)
800010b8:	007d2e23          	sw	t2,28(s10)
800010bc:	028d2023          	sw	s0,32(s10)
800010c0:	029d2223          	sw	s1,36(s10)
800010c4:	02ad2423          	sw	a0,40(s10)
800010c8:	02bd2623          	sw	a1,44(s10)
800010cc:	02cd2823          	sw	a2,48(s10)
800010d0:	02dd2a23          	sw	a3,52(s10)
800010d4:	02ed2c23          	sw	a4,56(s10)
800010d8:	02fd2e23          	sw	a5,60(s10)
800010dc:	050d2023          	sw	a6,64(s10)
800010e0:	051d2223          	sw	a7,68(s10)
800010e4:	052d2423          	sw	s2,72(s10)
800010e8:	053d2623          	sw	s3,76(s10)
800010ec:	054d2823          	sw	s4,80(s10)
800010f0:	055d2a23          	sw	s5,84(s10)
800010f4:	056d2c23          	sw	s6,88(s10)
800010f8:	057d2e23          	sw	s7,92(s10)
800010fc:	078d2023          	sw	s8,96(s10)
80001100:	079d2223          	sw	s9,100(s10)
80001104:	07ad2423          	sw	s10,104(s10)
80001108:	07bd2623          	sw	s11,108(s10)
8000110c:	07cd2823          	sw	t3,112(s10)
80001110:	07dd2a23          	sw	t4,116(s10)
80001114:	07ed2c23          	sw	t5,120(s10)
80001118:	07fd2e23          	sw	t6,124(s10)
8000111c:	34202df3          	csrr	s11,mcause
80001120:	01fddd93          	srli	s11,s11,0x1f
80001124:	000d8363          	beqz	s11,8000112a <mmode_intr_vector_24+0x96>
80001128:	ad91                	j	8000177c <mmode_intr_handler>
8000112a:	ffffff97          	auipc	t6,0xfffff
8000112e:	0a0f8f93          	addi	t6,t6,160 # 800001ca <test_done>
80001132:	000f8067          	jr	t6

80001136 <mmode_intr_vector_25>:
80001136:	340d1d73          	csrrw	s10,mscratch,s10
8000113a:	000f0d33          	add	s10,t5,zero
8000113e:	f84d0d13          	addi	s10,s10,-124
80001142:	001d2223          	sw	ra,4(s10)
80001146:	002d2423          	sw	sp,8(s10)
8000114a:	003d2623          	sw	gp,12(s10)
8000114e:	004d2823          	sw	tp,16(s10)
80001152:	005d2a23          	sw	t0,20(s10)
80001156:	006d2c23          	sw	t1,24(s10)
8000115a:	007d2e23          	sw	t2,28(s10)
8000115e:	028d2023          	sw	s0,32(s10)
80001162:	029d2223          	sw	s1,36(s10)
80001166:	02ad2423          	sw	a0,40(s10)
8000116a:	02bd2623          	sw	a1,44(s10)
8000116e:	02cd2823          	sw	a2,48(s10)
80001172:	02dd2a23          	sw	a3,52(s10)
80001176:	02ed2c23          	sw	a4,56(s10)
8000117a:	02fd2e23          	sw	a5,60(s10)
8000117e:	050d2023          	sw	a6,64(s10)
80001182:	051d2223          	sw	a7,68(s10)
80001186:	052d2423          	sw	s2,72(s10)
8000118a:	053d2623          	sw	s3,76(s10)
8000118e:	054d2823          	sw	s4,80(s10)
80001192:	055d2a23          	sw	s5,84(s10)
80001196:	056d2c23          	sw	s6,88(s10)
8000119a:	057d2e23          	sw	s7,92(s10)
8000119e:	078d2023          	sw	s8,96(s10)
800011a2:	079d2223          	sw	s9,100(s10)
800011a6:	07ad2423          	sw	s10,104(s10)
800011aa:	07bd2623          	sw	s11,108(s10)
800011ae:	07cd2823          	sw	t3,112(s10)
800011b2:	07dd2a23          	sw	t4,116(s10)
800011b6:	07ed2c23          	sw	t5,120(s10)
800011ba:	07fd2e23          	sw	t6,124(s10)
800011be:	34202df3          	csrr	s11,mcause
800011c2:	01fddd93          	srli	s11,s11,0x1f
800011c6:	000d8363          	beqz	s11,800011cc <mmode_intr_vector_25+0x96>
800011ca:	ab4d                	j	8000177c <mmode_intr_handler>
800011cc:	ffffff97          	auipc	t6,0xfffff
800011d0:	ffef8f93          	addi	t6,t6,-2 # 800001ca <test_done>
800011d4:	000f8067          	jr	t6

800011d8 <mmode_intr_vector_26>:
800011d8:	340d1d73          	csrrw	s10,mscratch,s10
800011dc:	000f0d33          	add	s10,t5,zero
800011e0:	f84d0d13          	addi	s10,s10,-124
800011e4:	001d2223          	sw	ra,4(s10)
800011e8:	002d2423          	sw	sp,8(s10)
800011ec:	003d2623          	sw	gp,12(s10)
800011f0:	004d2823          	sw	tp,16(s10)
800011f4:	005d2a23          	sw	t0,20(s10)
800011f8:	006d2c23          	sw	t1,24(s10)
800011fc:	007d2e23          	sw	t2,28(s10)
80001200:	028d2023          	sw	s0,32(s10)
80001204:	029d2223          	sw	s1,36(s10)
80001208:	02ad2423          	sw	a0,40(s10)
8000120c:	02bd2623          	sw	a1,44(s10)
80001210:	02cd2823          	sw	a2,48(s10)
80001214:	02dd2a23          	sw	a3,52(s10)
80001218:	02ed2c23          	sw	a4,56(s10)
8000121c:	02fd2e23          	sw	a5,60(s10)
80001220:	050d2023          	sw	a6,64(s10)
80001224:	051d2223          	sw	a7,68(s10)
80001228:	052d2423          	sw	s2,72(s10)
8000122c:	053d2623          	sw	s3,76(s10)
80001230:	054d2823          	sw	s4,80(s10)
80001234:	055d2a23          	sw	s5,84(s10)
80001238:	056d2c23          	sw	s6,88(s10)
8000123c:	057d2e23          	sw	s7,92(s10)
80001240:	078d2023          	sw	s8,96(s10)
80001244:	079d2223          	sw	s9,100(s10)
80001248:	07ad2423          	sw	s10,104(s10)
8000124c:	07bd2623          	sw	s11,108(s10)
80001250:	07cd2823          	sw	t3,112(s10)
80001254:	07dd2a23          	sw	t4,116(s10)
80001258:	07ed2c23          	sw	t5,120(s10)
8000125c:	07fd2e23          	sw	t6,124(s10)
80001260:	34202df3          	csrr	s11,mcause
80001264:	01fddd93          	srli	s11,s11,0x1f
80001268:	000d8363          	beqz	s11,8000126e <mmode_intr_vector_26+0x96>
8000126c:	ab01                	j	8000177c <mmode_intr_handler>
8000126e:	ffffff97          	auipc	t6,0xfffff
80001272:	f5cf8f93          	addi	t6,t6,-164 # 800001ca <test_done>
80001276:	000f8067          	jr	t6

8000127a <mmode_intr_vector_27>:
8000127a:	340d1d73          	csrrw	s10,mscratch,s10
8000127e:	000f0d33          	add	s10,t5,zero
80001282:	f84d0d13          	addi	s10,s10,-124
80001286:	001d2223          	sw	ra,4(s10)
8000128a:	002d2423          	sw	sp,8(s10)
8000128e:	003d2623          	sw	gp,12(s10)
80001292:	004d2823          	sw	tp,16(s10)
80001296:	005d2a23          	sw	t0,20(s10)
8000129a:	006d2c23          	sw	t1,24(s10)
8000129e:	007d2e23          	sw	t2,28(s10)
800012a2:	028d2023          	sw	s0,32(s10)
800012a6:	029d2223          	sw	s1,36(s10)
800012aa:	02ad2423          	sw	a0,40(s10)
800012ae:	02bd2623          	sw	a1,44(s10)
800012b2:	02cd2823          	sw	a2,48(s10)
800012b6:	02dd2a23          	sw	a3,52(s10)
800012ba:	02ed2c23          	sw	a4,56(s10)
800012be:	02fd2e23          	sw	a5,60(s10)
800012c2:	050d2023          	sw	a6,64(s10)
800012c6:	051d2223          	sw	a7,68(s10)
800012ca:	052d2423          	sw	s2,72(s10)
800012ce:	053d2623          	sw	s3,76(s10)
800012d2:	054d2823          	sw	s4,80(s10)
800012d6:	055d2a23          	sw	s5,84(s10)
800012da:	056d2c23          	sw	s6,88(s10)
800012de:	057d2e23          	sw	s7,92(s10)
800012e2:	078d2023          	sw	s8,96(s10)
800012e6:	079d2223          	sw	s9,100(s10)
800012ea:	07ad2423          	sw	s10,104(s10)
800012ee:	07bd2623          	sw	s11,108(s10)
800012f2:	07cd2823          	sw	t3,112(s10)
800012f6:	07dd2a23          	sw	t4,116(s10)
800012fa:	07ed2c23          	sw	t5,120(s10)
800012fe:	07fd2e23          	sw	t6,124(s10)
80001302:	34202df3          	csrr	s11,mcause
80001306:	01fddd93          	srli	s11,s11,0x1f
8000130a:	000d8363          	beqz	s11,80001310 <mmode_intr_vector_27+0x96>
8000130e:	a1bd                	j	8000177c <mmode_intr_handler>
80001310:	ffffff97          	auipc	t6,0xfffff
80001314:	ebaf8f93          	addi	t6,t6,-326 # 800001ca <test_done>
80001318:	000f8067          	jr	t6

8000131c <mmode_intr_vector_28>:
8000131c:	340d1d73          	csrrw	s10,mscratch,s10
80001320:	000f0d33          	add	s10,t5,zero
80001324:	f84d0d13          	addi	s10,s10,-124
80001328:	001d2223          	sw	ra,4(s10)
8000132c:	002d2423          	sw	sp,8(s10)
80001330:	003d2623          	sw	gp,12(s10)
80001334:	004d2823          	sw	tp,16(s10)
80001338:	005d2a23          	sw	t0,20(s10)
8000133c:	006d2c23          	sw	t1,24(s10)
80001340:	007d2e23          	sw	t2,28(s10)
80001344:	028d2023          	sw	s0,32(s10)
80001348:	029d2223          	sw	s1,36(s10)
8000134c:	02ad2423          	sw	a0,40(s10)
80001350:	02bd2623          	sw	a1,44(s10)
80001354:	02cd2823          	sw	a2,48(s10)
80001358:	02dd2a23          	sw	a3,52(s10)
8000135c:	02ed2c23          	sw	a4,56(s10)
80001360:	02fd2e23          	sw	a5,60(s10)
80001364:	050d2023          	sw	a6,64(s10)
80001368:	051d2223          	sw	a7,68(s10)
8000136c:	052d2423          	sw	s2,72(s10)
80001370:	053d2623          	sw	s3,76(s10)
80001374:	054d2823          	sw	s4,80(s10)
80001378:	055d2a23          	sw	s5,84(s10)
8000137c:	056d2c23          	sw	s6,88(s10)
80001380:	057d2e23          	sw	s7,92(s10)
80001384:	078d2023          	sw	s8,96(s10)
80001388:	079d2223          	sw	s9,100(s10)
8000138c:	07ad2423          	sw	s10,104(s10)
80001390:	07bd2623          	sw	s11,108(s10)
80001394:	07cd2823          	sw	t3,112(s10)
80001398:	07dd2a23          	sw	t4,116(s10)
8000139c:	07ed2c23          	sw	t5,120(s10)
800013a0:	07fd2e23          	sw	t6,124(s10)
800013a4:	34202df3          	csrr	s11,mcause
800013a8:	01fddd93          	srli	s11,s11,0x1f
800013ac:	000d8363          	beqz	s11,800013b2 <mmode_intr_vector_28+0x96>
800013b0:	a6f1                	j	8000177c <mmode_intr_handler>
800013b2:	ffffff97          	auipc	t6,0xfffff
800013b6:	e18f8f93          	addi	t6,t6,-488 # 800001ca <test_done>
800013ba:	000f8067          	jr	t6

800013be <mmode_intr_vector_29>:
800013be:	340d1d73          	csrrw	s10,mscratch,s10
800013c2:	000f0d33          	add	s10,t5,zero
800013c6:	f84d0d13          	addi	s10,s10,-124
800013ca:	001d2223          	sw	ra,4(s10)
800013ce:	002d2423          	sw	sp,8(s10)
800013d2:	003d2623          	sw	gp,12(s10)
800013d6:	004d2823          	sw	tp,16(s10)
800013da:	005d2a23          	sw	t0,20(s10)
800013de:	006d2c23          	sw	t1,24(s10)
800013e2:	007d2e23          	sw	t2,28(s10)
800013e6:	028d2023          	sw	s0,32(s10)
800013ea:	029d2223          	sw	s1,36(s10)
800013ee:	02ad2423          	sw	a0,40(s10)
800013f2:	02bd2623          	sw	a1,44(s10)
800013f6:	02cd2823          	sw	a2,48(s10)
800013fa:	02dd2a23          	sw	a3,52(s10)
800013fe:	02ed2c23          	sw	a4,56(s10)
80001402:	02fd2e23          	sw	a5,60(s10)
80001406:	050d2023          	sw	a6,64(s10)
8000140a:	051d2223          	sw	a7,68(s10)
8000140e:	052d2423          	sw	s2,72(s10)
80001412:	053d2623          	sw	s3,76(s10)
80001416:	054d2823          	sw	s4,80(s10)
8000141a:	055d2a23          	sw	s5,84(s10)
8000141e:	056d2c23          	sw	s6,88(s10)
80001422:	057d2e23          	sw	s7,92(s10)
80001426:	078d2023          	sw	s8,96(s10)
8000142a:	079d2223          	sw	s9,100(s10)
8000142e:	07ad2423          	sw	s10,104(s10)
80001432:	07bd2623          	sw	s11,108(s10)
80001436:	07cd2823          	sw	t3,112(s10)
8000143a:	07dd2a23          	sw	t4,116(s10)
8000143e:	07ed2c23          	sw	t5,120(s10)
80001442:	07fd2e23          	sw	t6,124(s10)
80001446:	34202df3          	csrr	s11,mcause
8000144a:	01fddd93          	srli	s11,s11,0x1f
8000144e:	000d8363          	beqz	s11,80001454 <mmode_intr_vector_29+0x96>
80001452:	a62d                	j	8000177c <mmode_intr_handler>
80001454:	ffffff97          	auipc	t6,0xfffff
80001458:	d76f8f93          	addi	t6,t6,-650 # 800001ca <test_done>
8000145c:	000f8067          	jr	t6

80001460 <mmode_intr_vector_30>:
80001460:	340d1d73          	csrrw	s10,mscratch,s10
80001464:	000f0d33          	add	s10,t5,zero
80001468:	f84d0d13          	addi	s10,s10,-124
8000146c:	001d2223          	sw	ra,4(s10)
80001470:	002d2423          	sw	sp,8(s10)
80001474:	003d2623          	sw	gp,12(s10)
80001478:	004d2823          	sw	tp,16(s10)
8000147c:	005d2a23          	sw	t0,20(s10)
80001480:	006d2c23          	sw	t1,24(s10)
80001484:	007d2e23          	sw	t2,28(s10)
80001488:	028d2023          	sw	s0,32(s10)
8000148c:	029d2223          	sw	s1,36(s10)
80001490:	02ad2423          	sw	a0,40(s10)
80001494:	02bd2623          	sw	a1,44(s10)
80001498:	02cd2823          	sw	a2,48(s10)
8000149c:	02dd2a23          	sw	a3,52(s10)
800014a0:	02ed2c23          	sw	a4,56(s10)
800014a4:	02fd2e23          	sw	a5,60(s10)
800014a8:	050d2023          	sw	a6,64(s10)
800014ac:	051d2223          	sw	a7,68(s10)
800014b0:	052d2423          	sw	s2,72(s10)
800014b4:	053d2623          	sw	s3,76(s10)
800014b8:	054d2823          	sw	s4,80(s10)
800014bc:	055d2a23          	sw	s5,84(s10)
800014c0:	056d2c23          	sw	s6,88(s10)
800014c4:	057d2e23          	sw	s7,92(s10)
800014c8:	078d2023          	sw	s8,96(s10)
800014cc:	079d2223          	sw	s9,100(s10)
800014d0:	07ad2423          	sw	s10,104(s10)
800014d4:	07bd2623          	sw	s11,108(s10)
800014d8:	07cd2823          	sw	t3,112(s10)
800014dc:	07dd2a23          	sw	t4,116(s10)
800014e0:	07ed2c23          	sw	t5,120(s10)
800014e4:	07fd2e23          	sw	t6,124(s10)
800014e8:	34202df3          	csrr	s11,mcause
800014ec:	01fddd93          	srli	s11,s11,0x1f
800014f0:	000d8363          	beqz	s11,800014f6 <mmode_intr_vector_30+0x96>
800014f4:	a461                	j	8000177c <mmode_intr_handler>
800014f6:	ffffff97          	auipc	t6,0xfffff
800014fa:	cd4f8f93          	addi	t6,t6,-812 # 800001ca <test_done>
800014fe:	000f8067          	jr	t6

80001502 <mmode_intr_vector_31>:
80001502:	340d1d73          	csrrw	s10,mscratch,s10
80001506:	000f0d33          	add	s10,t5,zero
8000150a:	f84d0d13          	addi	s10,s10,-124
8000150e:	001d2223          	sw	ra,4(s10)
80001512:	002d2423          	sw	sp,8(s10)
80001516:	003d2623          	sw	gp,12(s10)
8000151a:	004d2823          	sw	tp,16(s10)
8000151e:	005d2a23          	sw	t0,20(s10)
80001522:	006d2c23          	sw	t1,24(s10)
80001526:	007d2e23          	sw	t2,28(s10)
8000152a:	028d2023          	sw	s0,32(s10)
8000152e:	029d2223          	sw	s1,36(s10)
80001532:	02ad2423          	sw	a0,40(s10)
80001536:	02bd2623          	sw	a1,44(s10)
8000153a:	02cd2823          	sw	a2,48(s10)
8000153e:	02dd2a23          	sw	a3,52(s10)
80001542:	02ed2c23          	sw	a4,56(s10)
80001546:	02fd2e23          	sw	a5,60(s10)
8000154a:	050d2023          	sw	a6,64(s10)
8000154e:	051d2223          	sw	a7,68(s10)
80001552:	052d2423          	sw	s2,72(s10)
80001556:	053d2623          	sw	s3,76(s10)
8000155a:	054d2823          	sw	s4,80(s10)
8000155e:	055d2a23          	sw	s5,84(s10)
80001562:	056d2c23          	sw	s6,88(s10)
80001566:	057d2e23          	sw	s7,92(s10)
8000156a:	078d2023          	sw	s8,96(s10)
8000156e:	079d2223          	sw	s9,100(s10)
80001572:	07ad2423          	sw	s10,104(s10)
80001576:	07bd2623          	sw	s11,108(s10)
8000157a:	07cd2823          	sw	t3,112(s10)
8000157e:	07dd2a23          	sw	t4,116(s10)
80001582:	07ed2c23          	sw	t5,120(s10)
80001586:	07fd2e23          	sw	t6,124(s10)
8000158a:	34202df3          	csrr	s11,mcause
8000158e:	01fddd93          	srli	s11,s11,0x1f
80001592:	000d8363          	beqz	s11,80001598 <mmode_intr_vector_31+0x96>
80001596:	a2dd                	j	8000177c <mmode_intr_handler>
80001598:	ffffff97          	auipc	t6,0xfffff
8000159c:	c32f8f93          	addi	t6,t6,-974 # 800001ca <test_done>
800015a0:	000f8067          	jr	t6

800015a4 <mmode_exception_handler>:
800015a4:	340d1d73          	csrrw	s10,mscratch,s10
800015a8:	000f0d33          	add	s10,t5,zero
800015ac:	f84d0d13          	addi	s10,s10,-124
800015b0:	001d2223          	sw	ra,4(s10)
800015b4:	002d2423          	sw	sp,8(s10)
800015b8:	003d2623          	sw	gp,12(s10)
800015bc:	004d2823          	sw	tp,16(s10)
800015c0:	005d2a23          	sw	t0,20(s10)
800015c4:	006d2c23          	sw	t1,24(s10)
800015c8:	007d2e23          	sw	t2,28(s10)
800015cc:	028d2023          	sw	s0,32(s10)
800015d0:	029d2223          	sw	s1,36(s10)
800015d4:	02ad2423          	sw	a0,40(s10)
800015d8:	02bd2623          	sw	a1,44(s10)
800015dc:	02cd2823          	sw	a2,48(s10)
800015e0:	02dd2a23          	sw	a3,52(s10)
800015e4:	02ed2c23          	sw	a4,56(s10)
800015e8:	02fd2e23          	sw	a5,60(s10)
800015ec:	050d2023          	sw	a6,64(s10)
800015f0:	051d2223          	sw	a7,68(s10)
800015f4:	052d2423          	sw	s2,72(s10)
800015f8:	053d2623          	sw	s3,76(s10)
800015fc:	054d2823          	sw	s4,80(s10)
80001600:	055d2a23          	sw	s5,84(s10)
80001604:	056d2c23          	sw	s6,88(s10)
80001608:	057d2e23          	sw	s7,92(s10)
8000160c:	078d2023          	sw	s8,96(s10)
80001610:	079d2223          	sw	s9,100(s10)
80001614:	07ad2423          	sw	s10,104(s10)
80001618:	07bd2623          	sw	s11,108(s10)
8000161c:	07cd2823          	sw	t3,112(s10)
80001620:	07dd2a23          	sw	t4,116(s10)
80001624:	07ed2c23          	sw	t5,120(s10)
80001628:	07fd2e23          	sw	t6,124(s10)
8000162c:	34102df3          	csrr	s11,mepc
80001630:	34202df3          	csrr	s11,mcause
80001634:	442d                	li	s0,11
80001636:	008d8d63          	beq	s11,s0,80001650 <ecall_handler>
8000163a:	4409                	li	s0,2
8000163c:	0a8d8563          	beq	s11,s0,800016e6 <illegal_instr_handler>
80001640:	34302473          	csrr	s0,mtval
80001644:	ffffff97          	auipc	t6,0xfffff
80001648:	b86f8f93          	addi	t6,t6,-1146 # 800001ca <test_done>
8000164c:	000f80e7          	jalr	t6

80001650 <ecall_handler>:
80001650:	fffffd97          	auipc	s11,0xfffff
80001654:	a30d8d93          	addi	s11,s11,-1488 # 80000080 <_start>
80001658:	000da023          	sw	zero,0(s11)
8000165c:	001da223          	sw	ra,4(s11)
80001660:	002da423          	sw	sp,8(s11)
80001664:	003da623          	sw	gp,12(s11)
80001668:	004da823          	sw	tp,16(s11)
8000166c:	005daa23          	sw	t0,20(s11)
80001670:	006dac23          	sw	t1,24(s11)
80001674:	007dae23          	sw	t2,28(s11)
80001678:	028da023          	sw	s0,32(s11)
8000167c:	029da223          	sw	s1,36(s11)
80001680:	02ada423          	sw	a0,40(s11)
80001684:	02bda623          	sw	a1,44(s11)
80001688:	02cda823          	sw	a2,48(s11)
8000168c:	02ddaa23          	sw	a3,52(s11)
80001690:	02edac23          	sw	a4,56(s11)
80001694:	02fdae23          	sw	a5,60(s11)
80001698:	050da023          	sw	a6,64(s11)
8000169c:	051da223          	sw	a7,68(s11)
800016a0:	052da423          	sw	s2,72(s11)
800016a4:	053da623          	sw	s3,76(s11)
800016a8:	054da823          	sw	s4,80(s11)
800016ac:	055daa23          	sw	s5,84(s11)
800016b0:	056dac23          	sw	s6,88(s11)
800016b4:	057dae23          	sw	s7,92(s11)
800016b8:	078da023          	sw	s8,96(s11)
800016bc:	079da223          	sw	s9,100(s11)
800016c0:	07ada423          	sw	s10,104(s11)
800016c4:	07bda623          	sw	s11,108(s11)
800016c8:	07cda823          	sw	t3,112(s11)
800016cc:	07ddaa23          	sw	t4,116(s11)
800016d0:	07edac23          	sw	t5,120(s11)
800016d4:	07fdae23          	sw	t6,124(s11)
800016d8:	34102df3          	csrr	s11,mepc
800016dc:	0d91                	addi	s11,s11,4
800016de:	341d9073          	csrw	mepc,s11
800016e2:	30200073          	mret

800016e6 <illegal_instr_handler>:
800016e6:	34102df3          	csrr	s11,mepc
800016ea:	0d91                	addi	s11,s11,4
800016ec:	341d9073          	csrw	mepc,s11
800016f0:	004d2083          	lw	ra,4(s10)
800016f4:	008d2103          	lw	sp,8(s10)
800016f8:	00cd2183          	lw	gp,12(s10)
800016fc:	010d2203          	lw	tp,16(s10)
80001700:	014d2283          	lw	t0,20(s10)
80001704:	018d2303          	lw	t1,24(s10)
80001708:	01cd2383          	lw	t2,28(s10)
8000170c:	020d2403          	lw	s0,32(s10)
80001710:	024d2483          	lw	s1,36(s10)
80001714:	028d2503          	lw	a0,40(s10)
80001718:	02cd2583          	lw	a1,44(s10)
8000171c:	030d2603          	lw	a2,48(s10)
80001720:	034d2683          	lw	a3,52(s10)
80001724:	038d2703          	lw	a4,56(s10)
80001728:	03cd2783          	lw	a5,60(s10)
8000172c:	040d2803          	lw	a6,64(s10)
80001730:	044d2883          	lw	a7,68(s10)
80001734:	048d2903          	lw	s2,72(s10)
80001738:	04cd2983          	lw	s3,76(s10)
8000173c:	050d2a03          	lw	s4,80(s10)
80001740:	054d2a83          	lw	s5,84(s10)
80001744:	058d2b03          	lw	s6,88(s10)
80001748:	05cd2b83          	lw	s7,92(s10)
8000174c:	060d2c03          	lw	s8,96(s10)
80001750:	064d2c83          	lw	s9,100(s10)
80001754:	068d2d03          	lw	s10,104(s10)
80001758:	06cd2d83          	lw	s11,108(s10)
8000175c:	070d2e03          	lw	t3,112(s10)
80001760:	074d2e83          	lw	t4,116(s10)
80001764:	078d2f03          	lw	t5,120(s10)
80001768:	07cd2f83          	lw	t6,124(s10)
8000176c:	07cd0d13          	addi	s10,s10,124
80001770:	000d0f33          	add	t5,s10,zero
80001774:	340d1d73          	csrrw	s10,mscratch,s10
80001778:	30200073          	mret

8000177c <mmode_intr_handler>:
8000177c:	30002df3          	csrr	s11,mstatus
80001780:	30402df3          	csrr	s11,mie
80001784:	34402df3          	csrr	s11,mip
80001788:	344dbdf3          	csrrc	s11,mip,s11
8000178c:	004d2083          	lw	ra,4(s10)
80001790:	008d2103          	lw	sp,8(s10)
80001794:	00cd2183          	lw	gp,12(s10)
80001798:	010d2203          	lw	tp,16(s10)
8000179c:	014d2283          	lw	t0,20(s10)
800017a0:	018d2303          	lw	t1,24(s10)
800017a4:	01cd2383          	lw	t2,28(s10)
800017a8:	020d2403          	lw	s0,32(s10)
800017ac:	024d2483          	lw	s1,36(s10)
800017b0:	028d2503          	lw	a0,40(s10)
800017b4:	02cd2583          	lw	a1,44(s10)
800017b8:	030d2603          	lw	a2,48(s10)
800017bc:	034d2683          	lw	a3,52(s10)
800017c0:	038d2703          	lw	a4,56(s10)
800017c4:	03cd2783          	lw	a5,60(s10)
800017c8:	040d2803          	lw	a6,64(s10)
800017cc:	044d2883          	lw	a7,68(s10)
800017d0:	048d2903          	lw	s2,72(s10)
800017d4:	04cd2983          	lw	s3,76(s10)
800017d8:	050d2a03          	lw	s4,80(s10)
800017dc:	054d2a83          	lw	s5,84(s10)
800017e0:	058d2b03          	lw	s6,88(s10)
800017e4:	05cd2b83          	lw	s7,92(s10)
800017e8:	060d2c03          	lw	s8,96(s10)
800017ec:	064d2c83          	lw	s9,100(s10)
800017f0:	068d2d03          	lw	s10,104(s10)
800017f4:	06cd2d83          	lw	s11,108(s10)
800017f8:	070d2e03          	lw	t3,112(s10)
800017fc:	074d2e83          	lw	t4,116(s10)
80001800:	078d2f03          	lw	t5,120(s10)
80001804:	07cd2f83          	lw	t6,124(s10)
80001808:	07cd0d13          	addi	s10,s10,124
8000180c:	000d0f33          	add	t5,s10,zero
80001810:	340d1d73          	csrrw	s10,mscratch,s10
80001814:	30200073          	mret

80001818 <kernel_instr_end>:
80001818:	0001                	nop
8000181a:	0001                	nop

8000181c <kernel_data_start>:
8000181c:	00000013          	nop
80001820:	00000013          	nop
80001824:	00000013          	nop
80001828:	00000013          	nop
8000182c:	00000013          	nop
80001830:	00000013          	nop
80001834:	00000013          	nop
80001838:	00000013          	nop
8000183c:	00000013          	nop
80001840:	00000013          	nop
80001844:	00000013          	nop
80001848:	00000013          	nop
8000184c:	00000013          	nop
80001850:	00000013          	nop
80001854:	00000013          	nop
80001858:	00000013          	nop
8000185c:	00000013          	nop
80001860:	00000013          	nop
80001864:	00000013          	nop
80001868:	00000013          	nop
8000186c:	00000013          	nop
80001870:	00000013          	nop
